target datalayout = "e-m:e-p270:32:32-p271:32:32-p272:64:64-i64:64-i128:128-f80:128-n8:16:32:64-S128"
target triple = "x86_64-pc-linux-gnu"

%struct.agxbuf = type { %union.anon }
%union.anon = type { %struct.anon }
%struct.anon = type { ptr, i64, i64, [7 x i8], i8 }

; Function Attrs: nounwind uwtable
define internal zeroext i1 @agxbuf_is_inline(ptr noundef %0) #0 {
  %2 = alloca ptr, align 8
  store ptr %0, ptr %2, align 8
  %3 = load ptr, ptr %2, align 8
  %4 = getelementptr inbounds %struct.agxbuf, ptr %3, i32 0, i32 0
  %5 = getelementptr inbounds %struct.anon, ptr %4, i32 0, i32 4
  %6 = load i8, ptr %5, align 1
  %7 = zext i8 %6 to i32
  %8 = icmp slt i32 %7, 255
  ret i1 %8
}

; Function Attrs: nounwind uwtable
define internal i64 @agxblen(ptr noundef %0) #0 {
  %2 = alloca i64, align 8
  %3 = alloca ptr, align 8
  store ptr %0, ptr %3, align 8
  %4 = load ptr, ptr %3, align 8
  %5 = call zeroext i1 @agxbuf_is_inline(ptr noundef %4)
  br i1 %5, label %6, label %14

6:                                                ; preds = %1
  %7 = load ptr, ptr %3, align 8
  %8 = getelementptr inbounds %struct.agxbuf, ptr %7, i32 0, i32 0
  %9 = getelementptr inbounds %struct.anon, ptr %8, i32 0, i32 4
  %10 = load i8, ptr %9, align 1
  %11 = zext i8 %10 to i32
  %12 = sub nsw i32 %11, 0
  %13 = sext i32 %12 to i64
  store i64 %13, ptr %2, align 8
  br label %19

14:                                               ; preds = %1
  %15 = load ptr, ptr %3, align 8
  %16 = getelementptr inbounds %struct.agxbuf, ptr %15, i32 0, i32 0
  %17 = getelementptr inbounds %struct.anon, ptr %16, i32 0, i32 1
  %18 = load i64, ptr %17, align 8
  store i64 %18, ptr %2, align 8
  br label %19

19:                                               ; preds = %14, %6
  %20 = load i64, ptr %2, align 8
  ret i64 %20
}

; Function Attrs: nounwind uwtable
define internal i64 @agxbsizeof(ptr noundef %0) #0 {
  %2 = alloca i64, align 8
  %3 = alloca ptr, align 8
  store ptr %0, ptr %3, align 8
  %4 = load ptr, ptr %3, align 8
  %5 = call zeroext i1 @agxbuf_is_inline(ptr noundef %4)
  br i1 %5, label %6, label %7

6:                                                ; preds = %1
  store i64 31, ptr %2, align 8
  br label %12

7:                                                ; preds = %1
  %8 = load ptr, ptr %3, align 8
  %9 = getelementptr inbounds %struct.agxbuf, ptr %8, i32 0, i32 0
  %10 = getelementptr inbounds %struct.anon, ptr %9, i32 0, i32 2
  %11 = load i64, ptr %10, align 8
  store i64 %11, ptr %2, align 8
  br label %12

12:                                               ; preds = %7, %6
  %13 = load i64, ptr %2, align 8
  ret i64 %13
}

; Function Attrs: nounwind uwtable
define internal i64 @agxbput_n(ptr noundef %0, ptr noundef %1, i64 noundef %2) #0 {
  %4 = alloca i64, align 8
  %5 = alloca ptr, align 8
  %6 = alloca ptr, align 8
  %7 = alloca i64, align 8
  %8 = alloca i64, align 8
  store ptr %0, ptr %5, align 8
  store ptr %1, ptr %6, align 8
  store i64 %2, ptr %7, align 8
  %9 = load i64, ptr %7, align 8
  %10 = icmp eq i64 %9, 0
  br i1 %10, label %11, label %12

11:                                               ; preds = %3
  store i64 0, ptr %4, align 8
  br label %62

12:                                               ; preds = %3
  %13 = load i64, ptr %7, align 8
  %14 = load ptr, ptr %5, align 8
  %15 = call i64 @agxbsizeof(ptr noundef %14)
  %16 = load ptr, ptr %5, align 8
  %17 = call i64 @agxblen(ptr noundef %16)
  %18 = sub i64 %15, %17
  %19 = icmp ugt i64 %13, %18
  br i1 %19, label %20, label %23

20:                                               ; preds = %12
  %21 = load ptr, ptr %5, align 8
  %22 = load i64, ptr %7, align 8
  call void @agxbmore(ptr noundef %21, i64 noundef %22)
  br label %23

23:                                               ; preds = %20, %12
  %24 = load ptr, ptr %5, align 8
  %25 = call i64 @agxblen(ptr noundef %24)
  store i64 %25, ptr %8, align 8
  %26 = load ptr, ptr %5, align 8
  %27 = call zeroext i1 @agxbuf_is_inline(ptr noundef %26)
  br i1 %27, label %28, label %45

28:                                               ; preds = %23
  %29 = load ptr, ptr %5, align 8
  %30 = getelementptr inbounds %struct.agxbuf, ptr %29, i32 0, i32 0
  %31 = load i64, ptr %8, align 8
  %32 = getelementptr inbounds [31 x i8], ptr %30, i64 0, i64 %31
  %33 = load ptr, ptr %6, align 8
  %34 = load i64, ptr %7, align 8
  call void @llvm.memcpy.p0.p0.i64(ptr align 1 %32, ptr align 1 %33, i64 %34, i1 false)
  %35 = load i64, ptr %7, align 8
  %36 = trunc i64 %35 to i8
  %37 = zext i8 %36 to i32
  %38 = load ptr, ptr %5, align 8
  %39 = getelementptr inbounds %struct.agxbuf, ptr %38, i32 0, i32 0
  %40 = getelementptr inbounds %struct.anon, ptr %39, i32 0, i32 4
  %41 = load i8, ptr %40, align 1
  %42 = zext i8 %41 to i32
  %43 = add nsw i32 %42, %37
  %44 = trunc i32 %43 to i8
  store i8 %44, ptr %40, align 1
  br label %60

45:                                               ; preds = %23
  %46 = load ptr, ptr %5, align 8
  %47 = getelementptr inbounds %struct.agxbuf, ptr %46, i32 0, i32 0
  %48 = getelementptr inbounds %struct.anon, ptr %47, i32 0, i32 0
  %49 = load ptr, ptr %48, align 8
  %50 = load i64, ptr %8, align 8
  %51 = getelementptr inbounds i8, ptr %49, i64 %50
  %52 = load ptr, ptr %6, align 8
  %53 = load i64, ptr %7, align 8
  call void @llvm.memcpy.p0.p0.i64(ptr align 1 %51, ptr align 1 %52, i64 %53, i1 false)
  %54 = load i64, ptr %7, align 8
  %55 = load ptr, ptr %5, align 8
  %56 = getelementptr inbounds %struct.agxbuf, ptr %55, i32 0, i32 0
  %57 = getelementptr inbounds %struct.anon, ptr %56, i32 0, i32 1
  %58 = load i64, ptr %57, align 8
  %59 = add i64 %58, %54
  store i64 %59, ptr %57, align 8
  br label %60

60:                                               ; preds = %45, %28
  %61 = load i64, ptr %7, align 8
  store i64 %61, ptr %4, align 8
  br label %62

62:                                               ; preds = %60, %11
  %63 = load i64, ptr %4, align 8
  ret i64 %63
}

; Function Attrs: nounwind uwtable
define internal i64 @agxbput(ptr noundef %0, ptr noundef %1) #0 {
  %3 = alloca ptr, align 8
  %4 = alloca ptr, align 8
  %5 = alloca i64, align 8
  store ptr %0, ptr %3, align 8
  store ptr %1, ptr %4, align 8
  %6 = load ptr, ptr %4, align 8
  %7 = call i64 @strlen(ptr noundef %6) #11
  store i64 %7, ptr %5, align 8
  %8 = load ptr, ptr %3, align 8
  %9 = load ptr, ptr %4, align 8
  %10 = load i64, ptr %5, align 8
  %11 = call i64 @agxbput_n(ptr noundef %8, ptr noundef %9, i64 noundef %10)
  ret i64 %11
}