; Function Attrs: nounwind uwtable
define internal fastcc void @agxbput(ptr noundef captures(none) %0) unnamed_addr #0 {
  %2 = getelementptr i8, ptr %0, i64 31
  %.val.i.i = load i8, ptr %2, align 1
  %.not.i.i = icmp eq i8 %.val.i.i, -1
  br i1 %.not.i.i, label %4, label %agxbsizeof.exit.i

agxbsizeof.exit.i:                                ; preds = %1
  %3 = zext i8 %.val.i.i to i64
  br label %agxblen.exit.i

4:                                                ; preds = %1
  %5 = getelementptr inbounds nuw i8, ptr %0, i64 16
  %6 = load i64, ptr %5, align 8
  %7 = getelementptr inbounds nuw i8, ptr %0, i64 8
  %8 = load i64, ptr %7, align 8
  br label %agxblen.exit.i

agxblen.exit.i:                                   ; preds = %4, %agxbsizeof.exit.i
  %.0.i2.i = phi i64 [ 31, %agxbsizeof.exit.i ], [ %6, %4 ]
  %.0.i24.i = phi i64 [ %3, %agxbsizeof.exit.i ], [ %8, %4 ]
  %9 = sub i64 %.0.i2.i, %.0.i24.i
  %10 = icmp ult i64 %9, 2
  br i1 %10, label %11, label %12

11:                                               ; preds = %agxblen.exit.i
  tail call fastcc void @agxbmore(ptr noundef nonnull %0, i64 noundef 2)
  %.val.i25.pre.i = load i8, ptr %2, align 1
  br label %12

12:                                               ; preds = %11, %agxblen.exit.i
  %.val.i25.i = phi i8 [ %.val.i25.pre.i, %11 ], [ %.val.i.i, %agxblen.exit.i ]
  %.not.i26.i = icmp eq i8 %.val.i25.i, -1
  br i1 %.not.i26.i, label %18, label %13

13:                                               ; preds = %12
  %14 = zext i8 %.val.i25.i to i64
  %15 = getelementptr inbounds nuw [31 x i8], ptr %0, i64 0, i64 %14
  store i16 11824, ptr %15, align 1
  %16 = load i8, ptr %2, align 1
  %17 = add i8 %16, 2
  store i8 %17, ptr %2, align 1
  br label %agxbput_n.exit

18:                                               ; preds = %12
  %19 = getelementptr inbounds nuw i8, ptr %0, i64 8
  %20 = load i64, ptr %19, align 8
  %21 = load ptr, ptr %0, align 8
  %22 = getelementptr inbounds i8, ptr %21, i64 %20
  store i16 11824, ptr %22, align 1
  %23 = load i64, ptr %19, align 8
  %24 = add i64 %23, 2
  store i64 %24, ptr %19, align 8
  br label %agxbput_n.exit

agxbput_n.exit:                                   ; preds = %13, %18
  ret void
}